; Function Attrs: mustprogress uwtable
define dso_local noundef nonnull align 8 dereferenceable(24) ptr @_ZN4i18n12phonenumbers11UnicodeTextaSERKS1_(ptr noundef nonnull returned align 8 dereferenceable(24) %0, ptr noundef nonnull readonly align 8 dereferenceable(24) %1) local_unnamed_addr #1 align 2 {
  %.not = icmp eq ptr %0, %1
  br i1 %.not, label %5, label %3

3:                                                ; preds = %2
  %4 = tail call noundef nonnull align 8 dereferenceable(24) ptr @_ZN4i18n12phonenumbers11UnicodeText4CopyERKS1_(ptr noundef nonnull align 8 dereferenceable(24) %0, ptr noundef nonnull align 8 dereferenceable(24) %1)
  br label %5

5:                                                ; preds = %3, %2
  ret ptr %0
}